target datalayout = "e-m:e-p270:32:32-p271:32:32-p272:64:64-i64:64-i128:128-f80:128-n8:16:32:64-S128"
target triple = "x86_64-pc-linux-gnu"

%struct.lua_State = type { ptr, i8, i8, i8, i8, i16, %union.StkIdRel, ptr, ptr, %union.StkIdRel, %union.StkIdRel, ptr, %union.StkIdRel, ptr, ptr, ptr, %struct.CallInfo, ptr, i64, i32, i32, i32, i32, i32, %struct.anon.3 }
%union.StkIdRel = type { ptr }
%struct.CallInfo = type { %union.StkIdRel, %union.StkIdRel, ptr, ptr, %union.anon, %union.anon.2, i32 }
%union.anon = type { %struct.anon.1 }
%struct.anon.1 = type { ptr, i64, i64 }
%union.anon.2 = type { i32 }
%struct.anon.3 = type { i32, i32 }
%struct.global_State = type { ptr, ptr, i64, i64, i64, i64, %struct.stringtable, %struct.TValue, %struct.TValue, i32, [6 x i8], i8, i8, i8, i8, i8, i8, ptr, ptr, ptr, ptr, ptr, ptr, ptr, ptr, ptr, ptr, ptr, ptr, ptr, ptr, ptr, ptr, ptr, ptr, ptr, ptr, ptr, [25 x ptr], [9 x ptr], [53 x [2 x ptr]], ptr, ptr }
%struct.stringtable = type { ptr, i32, i32 }
%struct.TValue = type { %union.Value, i8 }
%union.Value = type { ptr }

@.str.5 = private unnamed_addr constant [42 x i8] c"attempt to yield across a C-call boundary\00", align 1
@.str.6 = private unnamed_addr constant [42 x i8] c"attempt to yield from outside a coroutine\00", align 1

; Function Attrs: nounwind uwtable
define dso_local i32 @lua_yieldk(ptr noundef %0, i32 noundef %1, i64 noundef %2, ptr noundef %3) #0 {
  %5 = alloca ptr, align 8
  %6 = alloca i32, align 4
  %7 = alloca i64, align 8
  %8 = alloca ptr, align 8
  %9 = alloca ptr, align 8
  store ptr %0, ptr %5, align 8, !tbaa !4
  store i32 %1, ptr %6, align 4, !tbaa !9
  store i64 %2, ptr %7, align 8, !tbaa !59
  store ptr %3, ptr %8, align 8, !tbaa !47
  call void @llvm.lifetime.start.p0(i64 8, ptr %9) #11
  %10 = load ptr, ptr %5, align 8, !tbaa !4
  %11 = getelementptr inbounds nuw %struct.lua_State, ptr %10, i32 0, i32 8
  %12 = load ptr, ptr %11, align 8, !tbaa !53
  store ptr %12, ptr %9, align 8, !tbaa !54
  %13 = load ptr, ptr %5, align 8, !tbaa !4
  %14 = getelementptr inbounds nuw %struct.lua_State, ptr %13, i32 0, i32 19
  %15 = load i32, ptr %14, align 8, !tbaa !48
  %16 = and i32 %15, -65536
  %17 = icmp eq i32 %16, 0
  %18 = xor i1 %17, true
  %19 = zext i1 %18 to i32
  %20 = icmp ne i32 %19, 0
  %21 = zext i1 %20 to i32
  %22 = sext i32 %21 to i64
  %23 = call i64 @llvm.expect.i64(i64 %22, i64 0)
  %24 = icmp ne i64 %23, 0
  br i1 %24, label %25, label %37

25:                                               ; preds = %4
  %26 = load ptr, ptr %5, align 8, !tbaa !4
  %27 = load ptr, ptr %5, align 8, !tbaa !4
  %28 = getelementptr inbounds nuw %struct.lua_State, ptr %27, i32 0, i32 7
  %29 = load ptr, ptr %28, align 8, !tbaa !15
  %30 = getelementptr inbounds nuw %struct.global_State, ptr %29, i32 0, i32 36
  %31 = load ptr, ptr %30, align 8, !tbaa !45
  %32 = icmp ne ptr %26, %31
  br i1 %32, label %33, label %35

33:                                               ; preds = %25
  %34 = load ptr, ptr %5, align 8, !tbaa !4
  call void (ptr, ptr, ...) @luaG_runerror(ptr noundef %34, ptr noundef @.str.5) #13
  unreachable

35:                                               ; preds = %25
  %36 = load ptr, ptr %5, align 8, !tbaa !4
  call void (ptr, ptr, ...) @luaG_runerror(ptr noundef %36, ptr noundef @.str.6) #13
  unreachable

37:                                               ; preds = %4
  %38 = load ptr, ptr %5, align 8, !tbaa !4
  %39 = getelementptr inbounds nuw %struct.lua_State, ptr %38, i32 0, i32 3
  store i8 1, ptr %39, align 2, !tbaa !44
  %40 = load i32, ptr %6, align 4, !tbaa !9
  %41 = load ptr, ptr %9, align 8, !tbaa !54
  %42 = getelementptr inbounds nuw %struct.CallInfo, ptr %41, i32 0, i32 5
  store i32 %40, ptr %42, align 8, !tbaa !34
  %43 = load ptr, ptr %9, align 8, !tbaa !54
  %44 = getelementptr inbounds nuw %struct.CallInfo, ptr %43, i32 0, i32 6
  %45 = load i32, ptr %44, align 4, !tbaa !56
  %46 = and i32 %45, 32768
  %47 = icmp ne i32 %46, 0
  br i1 %47, label %49, label %48

48:                                               ; preds = %37
  br label %62

49:                                               ; preds = %37
  %50 = load ptr, ptr %8, align 8, !tbaa !47
  %51 = load ptr, ptr %9, align 8, !tbaa !54
  %52 = getelementptr inbounds nuw %struct.CallInfo, ptr %51, i32 0, i32 4
  %53 = getelementptr inbounds nuw %struct.anon.1, ptr %52, i32 0, i32 0
  store ptr %50, ptr %53, align 8, !tbaa !34
  %54 = icmp ne ptr %50, null
  br i1 %54, label %55, label %60

55:                                               ; preds = %49
  %56 = load i64, ptr %7, align 8, !tbaa !59
  %57 = load ptr, ptr %9, align 8, !tbaa !54
  %58 = getelementptr inbounds nuw %struct.CallInfo, ptr %57, i32 0, i32 4
  %59 = getelementptr inbounds nuw %struct.anon.1, ptr %58, i32 0, i32 2
  store i64 %56, ptr %59, align 8, !tbaa !34
  br label %60

60:                                               ; preds = %55, %49
  %61 = load ptr, ptr %5, align 8, !tbaa !4
  call void @luaD_throw(ptr noundef %61, i32 noundef 1) #13
  unreachable

62:                                               ; preds = %48
  call void @llvm.lifetime.end.p0(i64 8, ptr %9) #11
  ret i32 0
}