; Function Attrs: nounwind uwtable
define dso_local noundef i32 @lua_yieldk(ptr noundef %0, i32 noundef %1, i64 noundef %2, ptr noundef %3) local_unnamed_addr #0 {
  %5 = getelementptr inbounds nuw i8, ptr %0, i64 32
  %6 = load ptr, ptr %5, align 8, !tbaa !46
  %7 = getelementptr inbounds nuw i8, ptr %0, i64 176
  %8 = load i32, ptr %7, align 8, !tbaa !38
  %9 = icmp ugt i32 %8, 65535
  br i1 %9, label %10, label %17, !prof !42

10:                                               ; preds = %4
  %11 = getelementptr inbounds nuw i8, ptr %0, i64 24
  %12 = load ptr, ptr %11, align 8, !tbaa !4
  %13 = getelementptr inbounds nuw i8, ptr %12, i64 264
  %14 = load ptr, ptr %13, align 8, !tbaa !36
  %.not15 = icmp eq ptr %0, %14
  br i1 %.not15, label %16, label %15

15:                                               ; preds = %10
  tail call void (ptr, ptr, ...) @luaG_runerror(ptr noundef nonnull %0, ptr noundef nonnull @.str.5) #14
  unreachable

16:                                               ; preds = %10
  tail call void (ptr, ptr, ...) @luaG_runerror(ptr noundef nonnull %0, ptr noundef nonnull @.str.6) #14
  unreachable

17:                                               ; preds = %4
  %18 = getelementptr inbounds nuw i8, ptr %0, i64 10
  store i8 1, ptr %18, align 2, !tbaa !35
  %19 = getelementptr inbounds nuw i8, ptr %6, i64 56
  store i32 %1, ptr %19, align 8, !tbaa !27
  %20 = getelementptr inbounds nuw i8, ptr %6, i64 60
  %21 = load i32, ptr %20, align 4, !tbaa !43
  %22 = and i32 %21, 32768
  %.not = icmp eq i32 %22, 0
  br i1 %.not, label %28, label %23

23:                                               ; preds = %17
  %24 = getelementptr inbounds nuw i8, ptr %6, i64 32
  store ptr %3, ptr %24, align 8, !tbaa !27
  %.not14 = icmp eq ptr %3, null
  br i1 %.not14, label %27, label %25

25:                                               ; preds = %23
  %26 = getelementptr inbounds nuw i8, ptr %6, i64 48
  store i64 %2, ptr %26, align 8, !tbaa !27
  br label %27

27:                                               ; preds = %25, %23
  tail call void @luaD_throw(ptr noundef nonnull %0, i32 noundef 1) #15
  unreachable

28:                                               ; preds = %17
  ret i32 0
}